target datalayout = "e-m:e-p270:32:32-p271:32:32-p272:64:64-i64:64-i128:128-f80:128-n8:16:32:64-S128"
target triple = "x86_64-unknown-linux-gnu"

%"class.absl::ScopedMockLog" = type <{ %"class.testing::internal::FunctionMocker", %"class.testing::internal::FunctionMocker.5", %"class.testing::internal::FunctionMocker.6", %"class.absl::ScopedMockLog::ForwardingSink", i8, %"struct.std::atomic", [6 x i8] }>
%"class.testing::internal::FunctionMocker" = type { %"class.testing::internal::UntypedFunctionMockerBase" }
%"class.testing::internal::UntypedFunctionMockerBase" = type { ptr, ptr, ptr, %"class.std::vector", %"class.std::vector.0" }
%"class.std::vector" = type { %"struct.std::_Vector_base" }
%"struct.std::_Vector_base" = type { %"struct.std::_Vector_base<const void *, std::allocator<const void *>>::_Vector_impl" }
%"struct.std::_Vector_base<const void *, std::allocator<const void *>>::_Vector_impl" = type { %"struct.std::_Vector_base<const void *, std::allocator<const void *>>::_Vector_impl_data" }
%"struct.std::_Vector_base<const void *, std::allocator<const void *>>::_Vector_impl_data" = type { ptr, ptr, ptr }
%"class.std::vector.0" = type { %"struct.std::_Vector_base.1" }
%"struct.std::_Vector_base.1" = type { %"struct.std::_Vector_base<std::shared_ptr<testing::internal::ExpectationBase>, std::allocator<std::shared_ptr<testing::internal::ExpectationBase>>>::_Vector_impl" }
%"struct.std::_Vector_base<std::shared_ptr<testing::internal::ExpectationBase>, std::allocator<std::shared_ptr<testing::internal::ExpectationBase>>>::_Vector_impl" = type { %"struct.std::_Vector_base<std::shared_ptr<testing::internal::ExpectationBase>, std::allocator<std::shared_ptr<testing::internal::ExpectationBase>>>::_Vector_impl_data" }
%"struct.std::_Vector_base<std::shared_ptr<testing::internal::ExpectationBase>, std::allocator<std::shared_ptr<testing::internal::ExpectationBase>>>::_Vector_impl_data" = type { ptr, ptr, ptr }
%"class.testing::internal::FunctionMocker.5" = type { %"class.testing::internal::UntypedFunctionMockerBase" }
%"class.testing::internal::FunctionMocker.6" = type { %"class.testing::internal::UntypedFunctionMockerBase" }
%"class.absl::ScopedMockLog::ForwardingSink" = type { %"class.absl::LogSink", ptr }
%"class.absl::LogSink" = type { ptr }
%"struct.std::atomic" = type { %"struct.std::__atomic_base" }
%"struct.std::__atomic_base" = type { i8 }

@.str = private unnamed_addr constant [127 x i8] c"generated/home/dtcxzyw/WorkSpace/Projects/compilers/llvm-opt-benchmark/bench/abseil-cpp/abseil-cpp/absl/log/scoped_mock_log.cc\00", align 1
@.str.5 = private unnamed_addr constant [20 x i8] c"Check %s failed: %s\00", align 1
@.str.6 = private unnamed_addr constant [46 x i8] c"is_triggered_.load(std::memory_order_relaxed)\00", align 1
@.str.7 = private unnamed_addr constant [45 x i8] c"Did you forget to call StartCapturingLogs()?\00", align 1
@.str.10 = private unnamed_addr constant [19 x i8] c"is_capturing_logs_\00", align 1
@.str.11 = private unnamed_addr constant [94 x i8] c"StopCapturingLogs() can be called only when the absl::ScopedMockLog object is capturing logs.\00", align 1

; Function Attrs: mustprogress nounwind uwtable
define linkonce_odr dso_local void @_ZN4absl7LogSinkD2Ev(ptr noundef nonnull align 8 dereferenceable(8) %this) unnamed_addr #5 comdat align 2 {
entry:
  %this.addr = alloca ptr, align 8
  store ptr %this, ptr %this.addr, align 8
  ret void
}

; Function Attrs: mustprogress uwtable
define linkonce_odr dso_local void @_ZN4absl13RemoveLogSinkEPNS_7LogSinkE(ptr noundef %sink) #4 comdat {
entry:
  %sink.addr = alloca ptr, align 8
  store ptr %sink, ptr %sink.addr, align 8
  %0 = load ptr, ptr %sink.addr, align 8
  call void @_ZN4absl12log_internal13RemoveLogSinkEPNS_7LogSinkE(ptr noundef %0)
  ret void
}

; Function Attrs: mustprogress nounwind uwtable
define linkonce_odr dso_local noundef i32 @_ZStanSt12memory_orderSt23__memory_order_modifier(i32 noundef %__m, i32 noundef %__mod) #5 comdat {
entry:
  %__m.addr = alloca i32, align 4
  %__mod.addr = alloca i32, align 4
  store i32 %__m, ptr %__m.addr, align 4
  store i32 %__mod, ptr %__mod.addr, align 4
  %0 = load i32, ptr %__m.addr, align 4
  %1 = load i32, ptr %__mod.addr, align 4
  %and = and i32 %0, %1
  ret i32 %and
}

; Function Attrs: mustprogress nounwind uwtable
define linkonce_odr dso_local void @_ZN4absl13ScopedMockLog14ForwardingSinkD2Ev(ptr noundef nonnull align 8 dereferenceable(16) %this) unnamed_addr #5 comdat align 2 {
entry:
  %this.addr = alloca ptr, align 8
  store ptr %this, ptr %this.addr, align 8
  %this1 = load ptr, ptr %this.addr, align 8
  call void @_ZN4absl7LogSinkD2Ev(ptr noundef nonnull align 8 dereferenceable(8) %this1) #3
  ret void
}

; Function Attrs: mustprogress uwtable
define dso_local void @_ZN4absl13ScopedMockLog17StopCapturingLogsEv(ptr noundef nonnull align 8 dereferenceable(240) %this) #4 align 2 {
entry:
  %this.addr = alloca ptr, align 8
  %absl_raw_log_internal_basename = alloca ptr, align 8
  store ptr %this, ptr %this.addr, align 8
  %this1 = load ptr, ptr %this.addr, align 8
  br label %do.body

do.body:                                          ; preds = %entry
  %is_capturing_logs_ = getelementptr inbounds %"class.absl::ScopedMockLog", ptr %this1, i32 0, i32 4
  %0 = load i8, ptr %is_capturing_logs_, align 8
  %tobool = trunc i8 %0 to i1
  %lnot = xor i1 %tobool, true
  br i1 %lnot, label %if.then, label %if.end

if.then:                                          ; preds = %do.body
  br label %do.body2

do.body2:                                         ; preds = %if.then
  store ptr getelementptr (i8, ptr @.str, i64 108), ptr %absl_raw_log_internal_basename, align 8
  call void (i32, ptr, i32, ptr, ...) @_ZN4absl16raw_log_internal6RawLogENS_11LogSeverityEPKciS3_z(i32 noundef 3, ptr noundef getelementptr (i8, ptr @.str, i64 108), i32 noundef 74, ptr noundef @.str.5, ptr noundef @.str.10, ptr noundef @.str.11)
  br label %do.body3

do.body3:                                         ; preds = %do.body2
  unreachable

do.end:                                           ; No predecessors!
  br label %do.end4

do.end4:                                          ; preds = %do.end
  br label %if.end

if.end:                                           ; preds = %do.end4, %do.body
  br label %do.end5

do.end5:                                          ; preds = %if.end
  %is_capturing_logs_6 = getelementptr inbounds %"class.absl::ScopedMockLog", ptr %this1, i32 0, i32 4
  store i8 0, ptr %is_capturing_logs_6, align 8
  %sink_ = getelementptr inbounds %"class.absl::ScopedMockLog", ptr %this1, i32 0, i32 3
  call void @_ZN4absl13RemoveLogSinkEPNS_7LogSinkE(ptr noundef %sink_)
  ret void
}

; Function Attrs: mustprogress nounwind uwtable
define linkonce_odr dso_local noundef zeroext i1 @_ZNKSt6atomicIbE4loadESt12memory_order(ptr noundef nonnull align 1 dereferenceable(1) %this, i32 noundef %__m) #5 comdat align 2 personality ptr @__gxx_personality_v0 {
entry:
  %this.addr.i = alloca ptr, align 8
  %__m.addr.i = alloca i32, align 4
  %__b.i = alloca i32, align 4
  %atomic-temp.i = alloca i8, align 1
  %this.addr = alloca ptr, align 8
  %__m.addr = alloca i32, align 4
  store ptr %this, ptr %this.addr, align 8
  store i32 %__m, ptr %__m.addr, align 4
  %this1 = load ptr, ptr %this.addr, align 8
  %_M_base = getelementptr inbounds %"struct.std::atomic", ptr %this1, i32 0, i32 0
  %0 = load i32, ptr %__m.addr, align 4
  store ptr %_M_base, ptr %this.addr.i, align 8
  store i32 %0, ptr %__m.addr.i, align 4
  %this1.i = load ptr, ptr %this.addr.i, align 8
  %1 = load i32, ptr %__m.addr.i, align 4
  %call.i = invoke noundef i32 @_ZStanSt12memory_orderSt23__memory_order_modifier(i32 noundef %1, i32 noundef 65535)
          to label %invoke.cont.i unwind label %terminate.lpad.i

invoke.cont.i:                                    ; preds = %entry
  store i32 %call.i, ptr %__b.i, align 4
  %2 = load i32, ptr %__m.addr.i, align 4
  switch i32 %2, label %monotonic.i [
    i32 1, label %acquire.i
    i32 2, label %acquire.i
    i32 5, label %seqcst.i
  ]

monotonic.i:                                      ; preds = %invoke.cont.i
  %3 = load atomic i8, ptr %this1.i monotonic, align 1
  store i8 %3, ptr %atomic-temp.i, align 1
  br label %_ZNKSt13__atomic_baseIbE4loadESt12memory_order.exit

acquire.i:                                        ; preds = %invoke.cont.i, %invoke.cont.i
  %4 = load atomic i8, ptr %this1.i acquire, align 1
  store i8 %4, ptr %atomic-temp.i, align 1
  br label %_ZNKSt13__atomic_baseIbE4loadESt12memory_order.exit

seqcst.i:                                         ; preds = %invoke.cont.i
  %5 = load atomic i8, ptr %this1.i seq_cst, align 1
  store i8 %5, ptr %atomic-temp.i, align 1
  br label %_ZNKSt13__atomic_baseIbE4loadESt12memory_order.exit

terminate.lpad.i:                                 ; preds = %entry
  %6 = landingpad { ptr, i32 }
          catch ptr null
  %7 = extractvalue { ptr, i32 } %6, 0
  call void @__clang_call_terminate(ptr %7) #16
  unreachable

_ZNKSt13__atomic_baseIbE4loadESt12memory_order.exit: ; preds = %seqcst.i, %acquire.i, %monotonic.i
  %8 = load i8, ptr %atomic-temp.i, align 1
  %tobool.i = trunc i8 %8 to i1
  ret i1 %tobool.i
}

; Function Attrs: mustprogress nounwind uwtable
define dso_local void @_ZN4absl13ScopedMockLogD2Ev(ptr noundef nonnull align 8 dereferenceable(240) %this) unnamed_addr #5 align 2 personality ptr @__gxx_personality_v0 {
entry:
  %this.addr = alloca ptr, align 8
  %absl_raw_log_internal_basename = alloca ptr, align 8
  store ptr %this, ptr %this.addr, align 8
  %this1 = load ptr, ptr %this.addr, align 8
  br label %do.body

do.body:                                          ; preds = %entry
  %is_triggered_ = getelementptr inbounds %"class.absl::ScopedMockLog", ptr %this1, i32 0, i32 5
  %call = call noundef zeroext i1 @_ZNKSt6atomicIbE4loadESt12memory_order(ptr noundef nonnull align 1 dereferenceable(1) %is_triggered_, i32 noundef 0) #3
  %lnot = xor i1 %call, true
  br i1 %lnot, label %if.then, label %if.end

if.then:                                          ; preds = %do.body
  br label %do.body2

do.body2:                                         ; preds = %if.then
  store ptr getelementptr (i8, ptr @.str, i64 108), ptr %absl_raw_log_internal_basename, align 8
  invoke void (i32, ptr, i32, ptr, ...) @_ZN4absl16raw_log_internal6RawLogENS_11LogSeverityEPKciS3_z(i32 noundef 3, ptr noundef getelementptr (i8, ptr @.str, i64 108), i32 noundef 56, ptr noundef @.str.5, ptr noundef @.str.6, ptr noundef @.str.7)
          to label %invoke.cont unwind label %terminate.lpad

invoke.cont:                                      ; preds = %do.body2
  br label %do.body3

do.body3:                                         ; preds = %invoke.cont
  unreachable

do.cond:                                          ; No predecessors!
  br label %do.end

do.end:                                           ; preds = %do.cond
  br label %do.cond4

do.cond4:                                         ; preds = %do.end
  br label %do.end5

do.end5:                                          ; preds = %do.cond4
  br label %if.end

if.end:                                           ; preds = %do.end5, %do.body
  br label %do.cond6

do.cond6:                                         ; preds = %if.end
  br label %do.end7

do.end7:                                          ; preds = %do.cond6
  %is_capturing_logs_ = getelementptr inbounds %"class.absl::ScopedMockLog", ptr %this1, i32 0, i32 4
  %0 = load i8, ptr %is_capturing_logs_, align 8
  %tobool = trunc i8 %0 to i1
  br i1 %tobool, label %if.then8, label %if.end10

if.then8:                                         ; preds = %do.end7
  invoke void @_ZN4absl13ScopedMockLog17StopCapturingLogsEv(ptr noundef nonnull align 8 dereferenceable(240) %this1)
          to label %invoke.cont9 unwind label %terminate.lpad

invoke.cont9:                                     ; preds = %if.then8
  br label %if.end10

if.end10:                                         ; preds = %invoke.cont9, %do.end7
  %sink_ = getelementptr inbounds %"class.absl::ScopedMockLog", ptr %this1, i32 0, i32 3
  call void @_ZN4absl13ScopedMockLog14ForwardingSinkD2Ev(ptr noundef nonnull align 8 dereferenceable(16) %sink_) #3
  %gmock00_Flush_171 = getelementptr inbounds %"class.absl::ScopedMockLog", ptr %this1, i32 0, i32 2
  call void @_ZN7testing8internal14FunctionMockerIFvvEED2Ev(ptr noundef nonnull align 8 dereferenceable(72) %gmock00_Flush_171) #3
  %gmock01_Send_164 = getelementptr inbounds %"class.absl::ScopedMockLog", ptr %this1, i32 0, i32 1
  call void @_ZN7testing8internal14FunctionMockerIFvRKN4absl8LogEntryEEED2Ev(ptr noundef nonnull align 8 dereferenceable(72) %gmock01_Send_164) #3
  %gmock03_Log_152 = getelementptr inbounds %"class.absl::ScopedMockLog", ptr %this1, i32 0, i32 0
  call void @_ZN7testing8internal14FunctionMockerIFvN4absl11LogSeverityERKNSt7__cxx1112basic_stringIcSt11char_traitsIcESaIcEEESB_EED2Ev(ptr noundef nonnull align 8 dereferenceable(72) %gmock03_Log_152) #3
  ret void

terminate.lpad:                                   ; preds = %if.then8, %do.body2
  %1 = landingpad { ptr, i32 }
          catch ptr null
  %2 = extractvalue { ptr, i32 } %1, 0
  call void @__clang_call_terminate(ptr %2) #16
  unreachable
}