; Function Attrs: mustprogress nounwind uwtable
define dso_local void @_ZN4absl13ScopedMockLogD2Ev(ptr noundef nonnull align 8 dereferenceable(240) %this) unnamed_addr #4 align 2 personality ptr @__gxx_personality_v0 {
entry:
  %is_triggered_ = getelementptr inbounds i8, ptr %this, i64 233
  %0 = load atomic i8, ptr %is_triggered_ monotonic, align 1
  %1 = and i8 %0, 1
  %tobool.i.i.not = icmp eq i8 %1, 0
  br i1 %tobool.i.i.not, label %do.body2, label %do.end7

do.body2:                                         ; preds = %entry
  invoke void (i32, ptr, i32, ptr, ...) @_ZN4absl16raw_log_internal6RawLogENS_11LogSeverityEPKciS3_z(i32 noundef 3, ptr noundef nonnull getelementptr inbounds ([127 x i8], ptr @.str, i64 0, i64 108), i32 noundef 56, ptr noundef nonnull @.str.5, ptr noundef nonnull @.str.6, ptr noundef nonnull @.str.7)
          to label %do.body3 unwind label %terminate.lpad

do.body3:                                         ; preds = %do.body2
  unreachable

do.end7:                                          ; preds = %entry
  %is_capturing_logs_ = getelementptr inbounds i8, ptr %this, i64 232
  %2 = load i8, ptr %is_capturing_logs_, align 8
  %3 = and i8 %2, 1
  %tobool.not = icmp eq i8 %3, 0
  br i1 %tobool.not, label %if.end10, label %do.end5.i

do.end5.i:                                        ; preds = %do.end7
  store i8 0, ptr %is_capturing_logs_, align 8
  %sink_.i = getelementptr inbounds i8, ptr %this, i64 216
  invoke void @_ZN4absl12log_internal13RemoveLogSinkEPNS_7LogSinkE(ptr noundef nonnull %sink_.i)
          to label %if.end10 unwind label %terminate.lpad

if.end10:                                         ; preds = %do.end5.i, %do.end7
  %gmock00_Flush_171 = getelementptr inbounds i8, ptr %this, i64 144
  tail call void @_ZN7testing8internal14FunctionMockerIFvvEED2Ev(ptr noundef nonnull align 8 dereferenceable(72) %gmock00_Flush_171) #21
  %gmock01_Send_164 = getelementptr inbounds i8, ptr %this, i64 72
  tail call void @_ZN7testing8internal14FunctionMockerIFvRKN4absl8LogEntryEEED2Ev(ptr noundef nonnull align 8 dereferenceable(72) %gmock01_Send_164) #21
  tail call void @_ZN7testing8internal14FunctionMockerIFvN4absl11LogSeverityERKNSt7__cxx1112basic_stringIcSt11char_traitsIcESaIcEEESB_EED2Ev(ptr noundef nonnull align 8 dereferenceable(72) %this) #21
  ret void

terminate.lpad:                                   ; preds = %do.end5.i, %do.body2
  %4 = landingpad { ptr, i32 }
          catch ptr null
  %5 = extractvalue { ptr, i32 } %4, 0
  tail call void @__clang_call_terminate(ptr %5) #22
  unreachable
}